Certificate:
    Data:
        Version: 3 (0x2)
        Serial Number:
            b0:b7:4b:34:59:53:f4:97:3a:df:a1:25:6c:49:03:a5
    Signature Algorithm: sha256WithRSAEncryption
        Issuer: C=RU, O=JSC Komitex, CN=Root CA
        Validity
            Not Before: Apr  4 12:37:37 2017 GMT
            Not After : Apr  2 12:37:37 2027 GMT
        Subject: C=RU, O=JSC Komitex, CN=Root CA
        Subject Public Key Info:
            Public Key Algorithm: rsaEncryption
                Public-Key: (4096 bit)
                Modulus:
                    00:d4:e0:a2:72:63:e7:69:41:6b:68:75:79:24:1a:
                    12:f2:99:bf:b0:d7:07:9e:e4:5f:a5:77:f1:0c:fd:
                    23:d1:93:a9:8e:cc:8f:1e:fa:de:8b:60:10:db:68:
                    be:f0:3a:d9:41:94:e6:86:a5:5a:db:37:9e:50:37:
                    79:64:c0:35:e0:bb:01:7e:5b:6a:a3:ea:0e:6e:d9:
                    60:8a:e7:c9:8c:8e:90:f3:fd:9e:84:36:86:98:bc:
                    11:b4:be:46:d7:8a:56:66:e6:81:d7:e8:7a:e8:12:
                    cc:6b:97:9c:32:e6:0a:e0:6a:a5:44:a8:d0:43:df:
                    93:a6:0e:2a:fd:f2:7f:8d:6b:75:a2:9e:66:ba:dc:
                    25:d1:54:d0:ba:8d:23:95:f3:14:d1:be:f2:6e:7c:
                    77:2a:6d:ec:b5:bc:68:d4:fc:7f:ba:c9:e6:4e:1f:
                    20:94:c4:de:92:74:c0:f5:d2:97:35:3e:67:17:5a:
                    8b:83:fb:ea:22:fa:3f:d1:a9:8e:14:88:4c:3a:4c:
                    9d:69:e8:dd:1a:47:19:f4:7b:54:59:4d:87:dc:33:
                    0a:0b:22:1f:14:e5:3a:45:18:88:1c:45:b2:75:66:
                    ae:df:d8:e6:a1:78:ad:a0:f7:54:4e:48:96:84:fc:
                    58:dc:de:94:c0:72:f9:07:7b:81:27:78:e0:01:8a:
                    0e:14:0e:24:b0:df:38:ad:f3:bc:14:c3:4a:33:5f:
                    72:aa:6b:f3:4c:2d:9c:a7:d8:78:cc:58:29:22:6b:
                    de:24:0f:f5:50:7f:35:25:2f:3e:6b:33:a2:f8:98:
                    0d:16:dc:a1:89:8d:a1:f7:4c:6c:35:e7:af:c1:2d:
                    20:18:e1:b5:15:82:02:ae:ed:51:8a:eb:83:01:69:
                    7e:14:96:17:39:41:4e:ca:be:51:1f:47:42:2f:b9:
                    67:f0:3f:d3:5f:d6:ae:d3:68:b3:29:b6:de:7c:66:
                    b7:fc:37:5b:08:77:0e:6d:e4:d4:eb:25:e2:9b:40:
                    1c:d0:89:8a:7b:78:34:c4:d2:77:a8:b2:3b:4d:e6:
                    0a:89:8e:d8:8c:16:30:f8:ba:0c:84:3a:5d:9d:18:
                    90:aa:25:fd:c9:df:c8:1d:6e:85:0f:e4:ed:cd:72:
                    69:c8:3c:c4:90:18:40:c8:c0:14:ba:74:81:2d:f8:
                    d8:5e:62:d1:63:f7:96:18:74:ae:20:a6:00:64:1d:
                    ad:86:82:e8:2d:e3:13:ee:08:4e:4f:36:74:da:b5:
                    0c:2a:6d:77:17:fa:7f:02:77:10:7d:9a:94:29:63:
                    e7:78:c4:70:de:75:2d:f9:46:5e:a9:4a:ab:00:d4:
                    34:8f:07:89:af:79:d0:e5:74:86:96:c1:fc:4c:52:
                    17:2f:c1
                Exponent: 65537 (0x10001)
        X509v3 extensions:
            X509v3 Basic Constraints: critical
                CA:TRUE
            X509v3 Key Usage: critical
                Certificate Sign, CRL Sign
            X509v3 Subject Key Identifier: 
                F0:6E:1D:FE:7D:42:D1:A4:1E:96:53:39:A7:E1:F9:F0:B8:39:EF:3C
    Signature Algorithm: sha256WithRSAEncryption
         93:f8:23:1f:85:97:4c:ed:49:1b:ff:39:d2:72:be:01:89:1f:
         4b:bc:ff:7d:e1:2d:fe:e0:8f:61:d9:95:09:a5:94:4d:3f:33:
         e3:99:72:cb:ca:2d:82:a5:8d:34:a5:a1:99:9a:fb:36:19:b4:
         24:e5:e5:e8:bc:32:69:b7:2d:03:e0:74:e2:6a:88:da:f2:0e:
         d7:c3:78:d8:b6:1c:e1:e9:1d:41:e1:26:56:cf:1b:a4:00:6e:
         ff:a1:0a:bd:80:a5:ac:4f:26:41:85:9e:2b:3d:7b:88:fe:da:
         40:f9:1e:c8:48:ce:fb:79:c6:cc:87:aa:88:8d:70:2d:94:97:
         73:77:ea:f2:1d:7e:31:34:02:34:fd:27:16:a6:91:a2:ef:b6:
         b4:fb:d6:9a:0d:14:56:6e:31:a0:de:74:1b:a3:08:86:b4:65:
         7b:8b:84:22:64:ae:93:2a:67:77:24:fc:14:96:96:72:98:53:
         2c:00:8f:f3:ec:51:37:eb:fa:58:21:35:cc:e2:3a:30:13:13:
         82:74:97:90:2d:e4:ac:34:83:a4:16:e8:c2:1f:01:0b:e7:45:
         cb:88:ba:7b:5d:09:0a:b3:85:fd:2b:b9:7f:85:50:90:33:71:
         4b:1f:fb:d3:e6:04:3d:e1:b8:67:39:0e:f5:c0:50:29:74:9f:
         63:6c:50:69:a3:77:cd:7e:dc:9a:61:03:36:54:5c:5b:0b:c7:
         37:61:2b:6a:16:3d:37:3d:78:65:1f:57:55:e7:d2:ad:dd:43:
         8e:01:c3:3f:e1:a4:5d:39:7c:76:19:df:56:31:07:4d:10:74:
         50:64:18:18:02:65:05:9a:c0:c9:77:34:42:e5:a1:dc:ce:1b:
         ed:d4:4e:c2:3e:6a:97:80:3d:4a:ec:b5:a3:aa:3c:4b:aa:3d:
         07:5f:e1:db:78:e1:7f:61:c8:4a:85:1e:b3:6f:83:ec:2c:86:
         1a:8e:ba:ce:7a:db:12:4f:c6:22:c0:8b:3f:07:9f:4d:a9:ac:
         bf:e0:69:5f:c9:f5:7f:84:0d:72:43:52:26:f4:ed:5f:5d:42:
         ae:a3:d2:f3:87:35:7a:51:01:f3:d5:a0:41:68:6f:38:d9:a8:
         db:86:9b:af:03:72:84:30:60:f4:77:a1:4f:1d:c0:26:0b:4e:
         98:62:3c:b6:71:ba:00:cc:24:bc:66:7e:17:d2:09:93:4a:25:
         c4:90:a3:6b:6e:2d:3b:28:fd:21:4a:99:5f:b9:d1:51:6b:65:
         d6:1e:10:7a:ed:0a:2b:68:50:d2:dd:34:63:5b:c0:22:d3:98:
         53:41:4d:6c:1a:38:0d:fe:90:49:da:58:57:3f:c4:90:4b:0a:
         1d:13:18:4e:80:d0:77:d2
-----BEGIN CERTIFICATE-----
MIIFNzCCAx+gAwIBAgIRALC3SzRZU/SXOt+hJWxJA6UwDQYJKoZIhvcNAQELBQAw
NTELMAkGA1UEBhMCUlUxFDASBgNVBAoMC0pTQyBLb21pdGV4MRAwDgYDVQQDDAdS
b290IENBMB4XDTE3MDQwNDEyMzczN1oXDTI3MDQwMjEyMzczN1owNTELMAkGA1UE
BhMCUlUxFDASBgNVBAoMC0pTQyBLb21pdGV4MRAwDgYDVQQDDAdSb290IENBMIIC
IjANBgkqhkiG9w0BAQEFAAOCAg8AMIICCgKCAgEA1OCicmPnaUFraHV5JBoS8pm/
sNcHnuRfpXfxDP0j0ZOpjsyPHvrei2AQ22i+8DrZQZTmhqVa2zeeUDd5ZMA14LsB
fltqo+oObtlgiufJjI6Q8/2ehDaGmLwRtL5G14pWZuaB1+h66BLMa5ecMuYK4Gql
RKjQQ9+Tpg4q/fJ/jWt1op5mutwl0VTQuo0jlfMU0b7ybnx3Km3stbxo1Px/usnm
Th8glMTeknTA9dKXNT5nF1qLg/vqIvo/0amOFIhMOkydaejdGkcZ9HtUWU2H3DMK
CyIfFOU6RRiIHEWydWau39jmoXitoPdUTkiWhPxY3N6UwHL5B3uBJ3jgAYoOFA4k
sN84rfO8FMNKM19yqmvzTC2cp9h4zFgpImveJA/1UH81JS8+azOi+JgNFtyhiY2h
90xsNeevwS0gGOG1FYICru1RiuuDAWl+FJYXOUFOyr5RH0dCL7ln8D/TX9au02iz
KbbefGa3/DdbCHcObeTU6yXim0Ac0ImKe3g0xNJ3qLI7TeYKiY7YjBYw+LoMhDpd
nRiQqiX9yd/IHW6FD+TtzXJpyDzEkBhAyMAUunSBLfjYXmLRY/eWGHSuIKYAZB2t
hoLoLeMT7ghOTzZ02rUMKm13F/p/AncQfZqUKWPneMRw3nUt+UZeqUqrANQ0jweJ
r3nQ5XSGlsH8TFIXL8ECAwEAAaNCMEAwDwYDVR0TAQH/BAUwAwEB/zAOBgNVHQ8B
Af8EBAMCAQYwHQYDVR0OBBYEFPBuHf59QtGkHpZTOafh+fC4Oe88MA0GCSqGSIb3
DQEBCwUAA4ICAQCT+CMfhZdM7Ukb/znScr4BiR9LvP994S3+4I9h2ZUJpZRNPzPj
mXLLyi2CpY00paGZmvs2GbQk5eXovDJpty0D4HTiaoja8g7Xw3jYthzh6R1B4SZW
zxukAG7/oQq9gKWsTyZBhZ4rPXuI/tpA+R7ISM77ecbMh6qIjXAtlJdzd+ryHX4x
NAI0/ScWppGi77a0+9aaDRRWbjGg3nQbowiGtGV7i4QiZK6TKmd3JPwUlpZymFMs
AI/z7FE36/pYITXM4jowExOCdJeQLeSsNIOkFujCHwEL50XLiLp7XQkKs4X9K7l/
hVCQM3FLH/vT5gQ94bhnOQ71wFApdJ9jbFBpo3fNftyaYQM2VFxbC8c3YStqFj03
PXhlH1dV59Kt3UOOAcM/4aRdOXx2Gd9WMQdNEHRQZBgYAmUFmsDJdzRC5aHczhvt
1E7CPmqXgD1K7LWjqjxLqj0HX+HbeOF/YchKhR6zb4PsLIYajrrOetsST8YiwIs/
B59Nqay/4GlfyfV/hA1yQ1Im9O1fXUKuo9LzhzV6UQHz1aBBaG842ajbhpuvA3KE
MGD0d6FPHcAmC06YYjy2cboAzCS8Zn4X0gmTSiXEkKNrbi07KP0hSplfudFRa2XW
HhB67QoraFDS3TRjW8Ai05hTQU1sGjgN/pBJ2lhXP8SQSwodExhOgNB30g==
-----END CERTIFICATE-----
