Certificate:
    Data:
        Version: 3 (0x2)
        Serial Number:
            b0:b7:4b:34:59:53:f4:97:3a:df:a1:25:6c:49:03:a7
    Signature Algorithm: sha256WithRSAEncryption
        Issuer: C=RU, O=JSC Komitex, CN=Komitex CA/emailAddress=itiss@komitex.ru
        Validity
            Not Before: Apr  4 12:37:53 2017 GMT
            Not After : Apr  4 12:37:53 2018 GMT
        Subject: C=RU, O=JSC Komitex, CN=JSC Komitex IKS-GATEWAY/emailAddress=itiss@komitex.ru
        Subject Public Key Info:
            Public Key Algorithm: rsaEncryption
                Public-Key: (2048 bit)
                Modulus:
                    00:c5:e0:47:62:01:85:df:e7:e0:1b:a0:4a:65:4c:
                    3a:58:03:88:92:34:83:5f:e4:6f:d3:27:db:05:9e:
                    3b:8b:c9:dd:73:d2:26:2f:67:a1:de:f8:05:9c:14:
                    73:d8:7f:cd:e0:2d:ee:e1:34:7f:85:8a:85:49:88:
                    e3:d7:57:e7:88:f1:f0:d9:ea:05:ec:c6:3d:c7:64:
                    c3:17:28:6d:9c:0f:ff:4e:24:32:bd:19:ad:fd:86:
                    53:8b:4e:6d:7d:34:d1:ec:d3:0a:b4:26:25:00:87:
                    20:4e:74:34:53:60:d1:c4:4e:a2:78:73:98:be:a4:
                    07:08:19:e2:67:ff:d2:b4:f2:0f:7b:5f:ff:8a:ce:
                    52:5c:21:0c:ad:d4:d0:70:8c:c6:23:85:19:82:e0:
                    08:9f:3a:59:b4:72:29:b5:13:e2:7a:86:b6:f5:95:
                    87:4d:b2:81:9a:fe:76:1b:3f:aa:25:a8:95:11:61:
                    35:54:1f:ee:f1:d0:8b:62:1b:5c:67:f9:b2:10:59:
                    1c:08:d4:26:6f:1c:43:72:52:d4:b6:e7:2f:46:df:
                    6c:be:96:b1:f4:e3:32:de:70:bd:ee:0c:84:0a:e8:
                    12:cc:3b:e4:a9:2b:e0:61:f5:63:25:0c:de:d0:77:
                    11:ca:dd:b9:4d:ad:d4:2b:fb:54:b9:42:ac:90:3d:
                    4e:93
                Exponent: 65537 (0x10001)
        X509v3 extensions:
            Authority Information Access: 
                CA Issuers - URI:http://sub-ca.komitex.ru/sub-ca.crt
                OCSP - URI:http://ocsp.sub-ca.komitex.ru:9081

            X509v3 Authority Key Identifier: 
                keyid:AB:BF:7D:2F:C3:79:2C:5E:91:59:80:09:36:CA:BB:87:03:4B:27:DA

            X509v3 Basic Constraints: critical
                CA:FALSE
            X509v3 CRL Distribution Points: 

                Full Name:
                  URI:http://sub-ca.komitex.ru/sub-ca.crl

            X509v3 Extended Key Usage: 
                TLS Web Client Authentication, TLS Web Server Authentication
            X509v3 Key Usage: critical
                Digital Signature, Key Encipherment
            X509v3 Subject Key Identifier: 
                B9:26:2C:41:F4:1D:62:DC:C4:71:2A:E7:11:60:D5:6F:FB:FE:76:76
            X509v3 Subject Alternative Name: 
                DNS:*.x.komitex.ru, DNS:x.komitex.ru
    Signature Algorithm: sha256WithRSAEncryption
         19:2a:8d:cf:8d:91:85:aa:55:8c:e4:9e:d4:34:35:1f:70:91:
         41:08:64:c3:59:7f:3f:d2:3e:1c:3e:35:6b:83:53:d3:e9:fb:
         43:17:5d:67:c0:0f:09:02:35:b7:9e:c9:75:de:fc:0f:8e:d9:
         fc:21:54:16:67:61:e2:66:22:ce:a9:af:e2:6a:c7:e7:1a:68:
         f6:83:6a:7e:84:73:de:c1:19:40:8a:da:cc:b3:b7:0b:fd:5e:
         59:11:9e:88:75:e2:04:a4:e9:09:81:c7:c0:76:79:a0:a5:e6:
         eb:1b:70:24:ef:5b:b0:bb:82:b3:28:5a:da:d7:b8:0b:15:0b:
         b8:21:78:7a:97:7e:7e:1f:8e:08:72:ac:1b:86:96:fd:be:62:
         fe:75:5a:80:15:7b:72:af:1d:fc:c5:72:c2:00:1c:90:c5:54:
         71:a6:12:0b:18:39:f5:05:0d:92:19:73:73:89:0a:64:de:ce:
         13:bd:96:35:c7:e0:51:af:c6:f8:cd:08:38:d7:c6:d0:f1:7c:
         2c:27:78:14:9b:dc:6f:85:ac:ac:3c:c4:c4:7e:4f:35:1d:c3:
         eb:fe:5a:cd:63:4b:f2:01:d8:4f:6b:5a:38:9a:81:77:16:d9:
         6a:e2:b4:e3:82:56:c8:ec:4b:18:ab:2b:a8:58:df:1c:df:54:
         84:0d:90:d9:18:49:b7:4b:4e:12:60:36:2c:a3:8d:f9:d3:c3:
         39:7d:e3:6b:a7:c9:a9:16:72:71:34:9d:40:00:76:06:87:75:
         12:94:12:17:ad:94:01:71:9c:91:a2:a1:8c:57:4a:77:71:e3:
         ac:fb:38:ed:42:67:90:73:3c:26:3e:b7:e7:f8:fb:e4:11:cc:
         46:49:89:56:2e:89:39:2b:ad:71:3a:7c:c9:e7:21:2d:79:d5:
         1d:b8:43:2e:e4:7b:41:c1:27:a2:1a:aa:e3:d7:c3:a4:c0:f7:
         bb:2d:c1:e4:df:af:c9:32:25:3b:f5:77:db:ce:17:07:4b:3c:
         d5:03:c3:e2:ff:3f:38:9b:eb:ee:5e:9a:2f:98:43:a5:f5:fa:
         02:75:2e:e4:2c:75:33:f4:3b:62:71:d7:c0:76:11:27:3a:6e:
         b9:28:29:49:31:e4:52:56:3a:27:d0:f5:0b:85:11:9f:ff:cf:
         5b:29:2e:a1:dd:28:e7:06:8d:52:cc:88:81:e0:1a:b5:39:6e:
         98:8e:ac:83:f1:d5:ac:ae:88:f3:64:07:bb:bf:16:e1:cc:03:
         9b:67:a5:e0:48:43:9f:28:4d:a2:46:52:e8:64:38:2c:b7:b5:
         6f:02:cb:46:a2:9b:c1:47:39:37:a6:2e:2e:88:69:be:1d:c3:
         e8:7c:ef:49:83:16:b1:41
-----BEGIN CERTIFICATE-----
MIIFnTCCA4WgAwIBAgIRALC3SzRZU/SXOt+hJWxJA6cwDQYJKoZIhvcNAQELBQAw
WTELMAkGA1UEBhMCUlUxFDASBgNVBAoMC0pTQyBLb21pdGV4MRMwEQYDVQQDDApL
b21pdGV4IENBMR8wHQYJKoZIhvcNAQkBFhBpdGlzc0Brb21pdGV4LnJ1MB4XDTE3
MDQwNDEyMzc1M1oXDTE4MDQwNDEyMzc1M1owZjELMAkGA1UEBhMCUlUxFDASBgNV
BAoTC0pTQyBLb21pdGV4MSAwHgYDVQQDExdKU0MgS29taXRleCBJS1MtR0FURVdB
WTEfMB0GCSqGSIb3DQEJARYQaXRpc3NAa29taXRleC5ydTCCASIwDQYJKoZIhvcN
AQEBBQADggEPADCCAQoCggEBAMXgR2IBhd/n4BugSmVMOlgDiJI0g1/kb9Mn2wWe
O4vJ3XPSJi9nod74BZwUc9h/zeAt7uE0f4WKhUmI49dX54jx8NnqBezGPcdkwxco
bZwP/04kMr0Zrf2GU4tObX000ezTCrQmJQCHIE50NFNg0cROonhzmL6kBwgZ4mf/
0rTyD3tf/4rOUlwhDK3U0HCMxiOFGYLgCJ86WbRyKbUT4nqGtvWVh02ygZr+dhs/
qiWolRFhNVQf7vHQi2IbXGf5shBZHAjUJm8cQ3JS1LbnL0bfbL6WsfTjMt5wve4M
hAroEsw75Kkr4GH1YyUM3tB3EcrduU2t1Cv7VLlCrJA9TpMCAwEAAaOCAVEwggFN
MG8GCCsGAQUFBwEBBGMwYTAvBggrBgEFBQcwAoYjaHR0cDovL3N1Yi1jYS5rb21p
dGV4LnJ1L3N1Yi1jYS5jcnQwLgYIKwYBBQUHMAGGImh0dHA6Ly9vY3NwLnN1Yi1j
YS5rb21pdGV4LnJ1OjkwODEwHwYDVR0jBBgwFoAUq799L8N5LF6RWYAJNsq7hwNL
J9owDAYDVR0TAQH/BAIwADA0BgNVHR8ELTArMCmgJ6AlhiNodHRwOi8vc3ViLWNh
LmtvbWl0ZXgucnUvc3ViLWNhLmNybDAdBgNVHSUEFjAUBggrBgEFBQcDAgYIKwYB
BQUHAwEwDgYDVR0PAQH/BAQDAgWgMB0GA1UdDgQWBBS5JixB9B1i3MRxKucRYNVv
+/52djAnBgNVHREEIDAegg4qLngua29taXRleC5ydYIMeC5rb21pdGV4LnJ1MA0G
CSqGSIb3DQEBCwUAA4ICAQAZKo3PjZGFqlWM5J7UNDUfcJFBCGTDWX8/0j4cPjVr
g1PT6ftDF11nwA8JAjW3nsl13vwPjtn8IVQWZ2HiZiLOqa/iasfnGmj2g2p+hHPe
wRlAitrMs7cL/V5ZEZ6IdeIEpOkJgcfAdnmgpebrG3Ak71uwu4KzKFra17gLFQu4
IXh6l35+H44Icqwbhpb9vmL+dVqAFXtyrx38xXLCAByQxVRxphILGDn1BQ2SGXNz
iQpk3s4TvZY1x+BRr8b4zQg418bQ8XwsJ3gUm9xvhaysPMTEfk81HcPr/lrNY0vy
AdhPa1o4moF3Ftlq4rTjglbI7EsYqyuoWN8c31SEDZDZGEm3S04SYDYso43508M5
feNrp8mpFnJxNJ1AAHYGh3USlBIXrZQBcZyRoqGMV0p3ceOs+zjtQmeQczwmPrfn
+PvkEcxGSYlWLok5K61xOnzJ5yEtedUduEMu5HtBwSeiGqrj18OkwPe7LcHk36/J
MiU79XfbzhcHSzzVA8Pi/z84m+vuXpovmEOl9foCdS7kLHUz9DticdfAdhEnOm65
KClJMeRSVjon0PULhRGf/89bKS6h3SjnBo1SzIiB4Bq1OW6YjqyD8dWsrojzZAe7
vxbhzAObZ6XgSEOfKE2iRlLoZDgst7VvAstGopvBRzk3pi4uiGm+HcPofO9Jgxax
QQ==
-----END CERTIFICATE-----
