Certificate:
    Data:
        Version: 3 (0x2)
        Serial Number:
            b0:b7:4b:34:59:53:f4:97:3a:df:a1:25:6c:49:03:a6
    Signature Algorithm: sha256WithRSAEncryption
        Issuer: C=RU, O=JSC Komitex, CN=Root CA
        Validity
            Not Before: Apr  4 12:37:47 2017 GMT
            Not After : Apr  2 12:37:47 2027 GMT
        Subject: C=RU, O=JSC Komitex, CN=Komitex CA/emailAddress=itiss@komitex.ru
        Subject Public Key Info:
            Public Key Algorithm: rsaEncryption
                Public-Key: (4096 bit)
                Modulus:
                    00:cb:a2:78:ab:25:3a:2f:c0:0c:c9:f6:55:de:01:
                    58:aa:0b:f4:a4:7e:36:75:67:d7:ae:d7:66:27:19:
                    3e:0e:fe:ff:87:a2:94:e0:0d:8d:71:00:bf:04:5b:
                    1b:fc:6c:cc:2d:16:90:22:0b:e8:7e:ee:72:4c:39:
                    5a:7e:d0:f2:46:89:a0:0f:c3:43:54:08:08:9c:af:
                    2b:cc:fb:e1:7e:6c:f8:de:a3:c3:15:85:1f:72:b0:
                    8f:74:4d:06:6e:5a:28:ad:15:7a:cb:10:a8:36:e5:
                    db:20:d1:0e:98:00:bd:fe:89:2e:18:1a:06:8e:05:
                    39:e2:3a:fd:8b:3b:91:64:fb:06:3e:c3:75:8d:36:
                    20:6e:f8:0a:a9:ce:52:4e:1d:24:cc:df:71:44:05:
                    a7:97:bf:6e:00:5d:a9:f6:63:53:8b:96:9a:69:6c:
                    b1:67:6a:96:fb:5e:92:b5:eb:85:56:80:17:7b:54:
                    66:ae:d8:64:9e:9c:4f:be:e3:ab:54:43:d6:76:82:
                    8e:74:a1:df:88:10:50:fd:c5:f0:bf:3e:01:85:84:
                    79:62:d1:bc:6f:ce:0e:02:74:c4:ba:87:d9:3d:f3:
                    3e:97:2f:ee:35:e5:31:2c:2c:15:c8:03:97:53:4c:
                    af:b9:06:10:4d:7d:3a:10:42:14:7f:ff:8c:90:65:
                    ef:bd:1f:65:f4:81:d3:c6:72:24:43:40:ea:a6:fa:
                    62:5a:ab:ae:10:cb:cd:15:51:b2:ca:1d:09:57:f5:
                    a2:cf:e8:32:3b:98:2b:ec:34:6e:a8:89:f9:f2:88:
                    c4:a9:d4:b4:5e:5e:d7:64:90:9d:16:d0:f9:bb:fb:
                    73:70:3d:ed:5e:0b:1b:5c:85:66:50:f4:c4:c5:54:
                    81:d5:7b:12:0f:43:a2:86:a4:63:e5:cd:81:36:93:
                    6e:d1:5b:e2:a5:a4:3e:18:86:9e:2a:57:30:a9:b2:
                    d6:ac:a9:60:c3:63:06:a7:d4:9c:e0:6e:0b:c0:34:
                    84:90:e6:5f:62:09:61:0c:88:67:be:a5:02:15:7b:
                    93:56:11:ad:88:60:fc:00:9e:6d:48:8f:05:06:f3:
                    37:71:31:c4:53:c2:5b:95:34:c3:6c:20:e8:8e:35:
                    67:bd:10:b1:42:f0:1d:00:f0:e6:74:a6:bb:1e:81:
                    93:61:ba:a9:e8:47:f5:14:6d:21:a8:e6:b7:c1:ff:
                    e0:67:71:65:c9:60:d1:db:4e:84:f2:10:c4:f9:1b:
                    fc:ae:c1:7d:86:8c:28:fa:66:ae:8f:19:04:a6:3e:
                    c5:b4:8c:8b:42:e0:68:1a:09:e0:88:b0:50:20:4d:
                    ec:94:c3:23:87:46:da:ae:4b:ce:84:98:5b:76:97:
                    47:00:af
                Exponent: 65537 (0x10001)
        X509v3 extensions:
            Authority Information Access: 
                CA Issuers - URI:http://root-ca.komitex.ru/root-ca.crt
                OCSP - URI:http://ocsp.root-ca.komitex.ru:9081

            X509v3 Authority Key Identifier: 
                keyid:F0:6E:1D:FE:7D:42:D1:A4:1E:96:53:39:A7:E1:F9:F0:B8:39:EF:3C

            X509v3 Basic Constraints: critical
                CA:TRUE, pathlen:0
            X509v3 CRL Distribution Points: 

                Full Name:
                  URI:http://root-ca.komitex.ru/root-ca.crl

            X509v3 Extended Key Usage: 
                TLS Web Client Authentication, TLS Web Server Authentication
            X509v3 Key Usage: critical
                Certificate Sign, CRL Sign
            X509v3 Name Constraints: 
                Permitted:
                  DNS:x.komitex.ru
                Excluded:
                  IP:0.0.0.0/0.0.0.0
                  IP:0:0:0:0:0:0:0:0/0:0:0:0:0:0:0:0

            X509v3 Subject Key Identifier: 
                AB:BF:7D:2F:C3:79:2C:5E:91:59:80:09:36:CA:BB:87:03:4B:27:DA
    Signature Algorithm: sha256WithRSAEncryption
         ae:7f:30:e7:25:cd:0e:6c:93:97:c0:55:2b:1c:f6:05:e0:5b:
         16:dc:d0:10:d6:c4:3a:81:9c:74:11:56:e1:b3:45:50:6a:cb:
         44:db:c9:50:4d:22:9d:51:1e:f8:32:47:a4:86:f5:7e:72:97:
         5b:17:ff:97:6a:bd:72:11:5a:64:e2:8a:7e:32:47:fd:1a:d7:
         08:02:55:d8:88:8b:c0:23:2f:0f:bc:2f:83:e5:32:14:0e:4e:
         76:f3:12:a6:92:1b:c6:d9:86:0f:ae:08:88:33:18:35:67:53:
         39:03:4c:53:b0:69:07:55:02:98:6f:26:96:2f:90:8c:43:70:
         69:b6:f8:29:5d:7c:d6:ef:0f:5a:9f:89:db:5e:9b:3c:90:e5:
         15:6b:8c:7f:f1:75:ad:82:4d:da:44:21:8d:30:d4:fa:c9:3f:
         49:63:29:b9:b0:d0:6c:af:51:21:4e:2e:a2:d0:ca:75:8a:cc:
         9d:73:4a:52:09:7f:d3:7b:93:b9:44:62:66:06:2c:7f:d6:18:
         4b:43:41:88:53:51:6a:91:9a:95:f2:1e:4a:f5:df:df:c2:b1:
         f2:0d:a4:25:f4:86:b2:4f:8d:21:80:2e:ca:53:11:a1:8f:b7:
         d4:ba:8b:32:bc:79:f7:1e:a1:c9:ea:ad:0a:ad:fe:93:de:df:
         41:4b:aa:fe:42:f9:fb:ab:cc:29:bb:5a:7f:34:50:0b:2a:7c:
         3c:3a:24:39:fd:91:39:ba:89:3f:66:3d:7f:d3:ea:12:d2:98:
         88:0c:20:ea:57:99:25:b2:7e:ac:87:31:01:b6:9f:c9:b5:3f:
         55:f4:18:6d:d1:07:c4:02:19:b3:b2:4b:23:dd:69:fe:1b:57:
         f8:bc:51:6f:30:07:95:8a:71:88:14:24:74:5f:35:47:6e:5c:
         f5:1f:30:da:d0:2c:68:8d:e3:30:4e:39:a1:9c:a4:40:16:31:
         11:01:31:1a:0b:1e:a1:b4:f2:c9:5e:6b:1f:cd:45:40:1d:2f:
         77:bd:b3:e0:8a:3b:90:48:bd:dd:94:19:3d:a4:86:c5:13:44:
         59:7e:0e:93:60:18:b4:ef:82:78:28:f3:b5:9c:fa:4f:c1:84:
         e3:b8:86:3a:f9:16:42:fc:d4:9a:65:a2:18:12:8f:ca:67:b0:
         be:59:1b:b9:3f:cc:18:6b:03:3d:21:3e:fa:31:78:07:98:f2:
         36:d0:28:74:65:51:92:ee:95:0d:cf:47:a2:52:d9:bd:63:c2:
         de:33:83:a1:a7:89:a1:57:1e:e6:fb:8e:e7:2b:dd:b1:5a:0d:
         0b:eb:82:89:33:59:36:33:5b:f2:17:4c:93:29:29:56:31:2a:
         d4:3c:c2:f5:7a:0e:3f:54
-----BEGIN CERTIFICATE-----
MIIGnTCCBIWgAwIBAgIRALC3SzRZU/SXOt+hJWxJA6YwDQYJKoZIhvcNAQELBQAw
NTELMAkGA1UEBhMCUlUxFDASBgNVBAoMC0pTQyBLb21pdGV4MRAwDgYDVQQDDAdS
b290IENBMB4XDTE3MDQwNDEyMzc0N1oXDTI3MDQwMjEyMzc0N1owWTELMAkGA1UE
BhMCUlUxFDASBgNVBAoMC0pTQyBLb21pdGV4MRMwEQYDVQQDDApLb21pdGV4IENB
MR8wHQYJKoZIhvcNAQkBFhBpdGlzc0Brb21pdGV4LnJ1MIICIjANBgkqhkiG9w0B
AQEFAAOCAg8AMIICCgKCAgEAy6J4qyU6L8AMyfZV3gFYqgv0pH42dWfXrtdmJxk+
Dv7/h6KU4A2NcQC/BFsb/GzMLRaQIgvofu5yTDlaftDyRomgD8NDVAgInK8rzPvh
fmz43qPDFYUfcrCPdE0GbloorRV6yxCoNuXbINEOmAC9/okuGBoGjgU54jr9izuR
ZPsGPsN1jTYgbvgKqc5STh0kzN9xRAWnl79uAF2p9mNTi5aaaWyxZ2qW+16SteuF
VoAXe1RmrthknpxPvuOrVEPWdoKOdKHfiBBQ/cXwvz4BhYR5YtG8b84OAnTEuofZ
PfM+ly/uNeUxLCwVyAOXU0yvuQYQTX06EEIUf/+MkGXvvR9l9IHTxnIkQ0Dqpvpi
WquuEMvNFVGyyh0JV/Wiz+gyO5gr7DRuqIn58ojEqdS0Xl7XZJCdFtD5u/tzcD3t
XgsbXIVmUPTExVSB1XsSD0OihqRj5c2BNpNu0VvipaQ+GIaeKlcwqbLWrKlgw2MG
p9Sc4G4LwDSEkOZfYglhDIhnvqUCFXuTVhGtiGD8AJ5tSI8FBvM3cTHEU8JblTTD
bCDojjVnvRCxQvAdAPDmdKa7HoGTYbqp6Ef1FG0hqOa3wf/gZ3FlyWDR206E8hDE
+Rv8rsF9howo+maujxkEpj7FtIyLQuBoGgngiLBQIE3slMMjh0barkvOhJhbdpdH
AK8CAwEAAaOCAYIwggF+MHIGCCsGAQUFBwEBBGYwZDAxBggrBgEFBQcwAoYlaHR0
cDovL3Jvb3QtY2Eua29taXRleC5ydS9yb290LWNhLmNydDAvBggrBgEFBQcwAYYj
aHR0cDovL29jc3Aucm9vdC1jYS5rb21pdGV4LnJ1OjkwODEwHwYDVR0jBBgwFoAU
8G4d/n1C0aQellM5p+H58Lg57zwwEgYDVR0TAQH/BAgwBgEB/wIBADA2BgNVHR8E
LzAtMCugKaAnhiVodHRwOi8vcm9vdC1jYS5rb21pdGV4LnJ1L3Jvb3QtY2EuY3Js
MB0GA1UdJQQWMBQGCCsGAQUFBwMCBggrBgEFBQcDATAOBgNVHQ8BAf8EBAMCAQYw
TQYDVR0eBEYwRKAQMA6CDHgua29taXRleC5ydaEwMAqHCAAAAAAAAAAAMCKHIAAA
AAAAAAAAAAAAAAAAAAAAAAAAAAAAAAAAAAAAAAAAMB0GA1UdDgQWBBSrv30vw3ks
XpFZgAk2yruHA0sn2jANBgkqhkiG9w0BAQsFAAOCAgEArn8w5yXNDmyTl8BVKxz2
BeBbFtzQENbEOoGcdBFW4bNFUGrLRNvJUE0inVEe+DJHpIb1fnKXWxf/l2q9chFa
ZOKKfjJH/RrXCAJV2IiLwCMvD7wvg+UyFA5OdvMSppIbxtmGD64IiDMYNWdTOQNM
U7BpB1UCmG8mli+QjENwabb4KV181u8PWp+J216bPJDlFWuMf/F1rYJN2kQhjTDU
+sk/SWMpubDQbK9RIU4uotDKdYrMnXNKUgl/03uTuURiZgYsf9YYS0NBiFNRapGa
lfIeSvXf38Kx8g2kJfSGsk+NIYAuylMRoY+31LqLMrx59x6hyeqtCq3+k97fQUuq
/kL5+6vMKbtafzRQCyp8PDokOf2RObqJP2Y9f9PqEtKYiAwg6leZJbJ+rIcxAbaf
ybU/VfQYbdEHxAIZs7JLI91p/htX+LxRbzAHlYpxiBQkdF81R25c9R8w2tAsaI3j
ME45oZykQBYxEQExGgseobTyyV5rH81FQB0vd72z4Io7kEi93ZQZPaSGxRNEWX4O
k2AYtO+CeCjztZz6T8GE47iGOvkWQvzUmmWiGBKPymewvlkbuT/MGGsDPSE++jF4
B5jyNtAodGVRku6VDc9HolLZvWPC3jODoaeJoVce5vuO5yvdsVoNC+uCiTNZNjNb
8hdMkykpVjEq1DzC9XoOP1Q=
-----END CERTIFICATE-----
